target datalayout = "e-m:e-p270:32:32-p271:32:32-p272:64:64-i64:64-i128:128-f80:128-n8:16:32:64-S128"
target triple = "x86_64-pc-linux-gnu"

%struct.lv_point_t = type { i32, i32 }
%struct.lv_area_t = type { i32, i32, i32, i32 }
%struct._lv_obj_t = type { ptr, ptr, ptr, ptr, ptr, %struct.lv_area_t, i32, i16, i16 }
%struct._lv_obj_spec_attr_t = type { ptr, ptr, %struct.lv_event_list_t, %struct.lv_point_t, i32, i32, i16, i16 }
%struct.lv_event_list_t = type { %struct._lv_array_t, i8 }
%struct._lv_array_t = type { ptr, i32, i32, i32, i8 }
%struct._lv_hit_test_info_t = type { ptr, i8 }

; Function Attrs: inlinehint nounwind uwtable
define internal void @lv_area_copy(ptr noundef %0, ptr noundef %1) #3 {
  %3 = alloca ptr, align 8
  %4 = alloca ptr, align 8
  store ptr %0, ptr %3, align 8, !tbaa !3
  store ptr %1, ptr %4, align 8, !tbaa !3
  %5 = load ptr, ptr %4, align 8, !tbaa !3
  %6 = getelementptr inbounds nuw %struct.lv_area_t, ptr %5, i32 0, i32 0
  %7 = load i32, ptr %6, align 4, !tbaa !33
  %8 = load ptr, ptr %3, align 8, !tbaa !3
  %9 = getelementptr inbounds nuw %struct.lv_area_t, ptr %8, i32 0, i32 0
  store i32 %7, ptr %9, align 4, !tbaa !33
  %10 = load ptr, ptr %4, align 8, !tbaa !3
  %11 = getelementptr inbounds nuw %struct.lv_area_t, ptr %10, i32 0, i32 1
  %12 = load i32, ptr %11, align 4, !tbaa !34
  %13 = load ptr, ptr %3, align 8, !tbaa !3
  %14 = getelementptr inbounds nuw %struct.lv_area_t, ptr %13, i32 0, i32 1
  store i32 %12, ptr %14, align 4, !tbaa !34
  %15 = load ptr, ptr %4, align 8, !tbaa !3
  %16 = getelementptr inbounds nuw %struct.lv_area_t, ptr %15, i32 0, i32 2
  %17 = load i32, ptr %16, align 4, !tbaa !35
  %18 = load ptr, ptr %3, align 8, !tbaa !3
  %19 = getelementptr inbounds nuw %struct.lv_area_t, ptr %18, i32 0, i32 2
  store i32 %17, ptr %19, align 4, !tbaa !35
  %20 = load ptr, ptr %4, align 8, !tbaa !3
  %21 = getelementptr inbounds nuw %struct.lv_area_t, ptr %20, i32 0, i32 3
  %22 = load i32, ptr %21, align 4, !tbaa !36
  %23 = load ptr, ptr %3, align 8, !tbaa !3
  %24 = getelementptr inbounds nuw %struct.lv_area_t, ptr %23, i32 0, i32 3
  store i32 %22, ptr %24, align 4, !tbaa !36
  ret void
}

; Function Attrs: nounwind uwtable
define void @lv_obj_get_click_area(ptr noundef %0, ptr noundef %1) #0 {
  %3 = alloca ptr, align 8
  %4 = alloca ptr, align 8
  store ptr %0, ptr %3, align 8, !tbaa !3
  store ptr %1, ptr %4, align 8, !tbaa !3
  %5 = load ptr, ptr %4, align 8, !tbaa !3
  %6 = load ptr, ptr %3, align 8, !tbaa !3
  %7 = getelementptr inbounds nuw %struct._lv_obj_t, ptr %6, i32 0, i32 5
  call void @lv_area_copy(ptr noundef %5, ptr noundef %7)
  %8 = load ptr, ptr %3, align 8, !tbaa !3
  %9 = getelementptr inbounds nuw %struct._lv_obj_t, ptr %8, i32 0, i32 2
  %10 = load ptr, ptr %9, align 8, !tbaa !21
  %11 = icmp ne ptr %10, null
  br i1 %11, label %12, label %24

12:                                               ; preds = %2
  %13 = load ptr, ptr %4, align 8, !tbaa !3
  %14 = load ptr, ptr %3, align 8, !tbaa !3
  %15 = getelementptr inbounds nuw %struct._lv_obj_t, ptr %14, i32 0, i32 2
  %16 = load ptr, ptr %15, align 8, !tbaa !21
  %17 = getelementptr inbounds nuw %struct._lv_obj_spec_attr_t, ptr %16, i32 0, i32 4
  %18 = load i32, ptr %17, align 8, !tbaa !57
  %19 = load ptr, ptr %3, align 8, !tbaa !3
  %20 = getelementptr inbounds nuw %struct._lv_obj_t, ptr %19, i32 0, i32 2
  %21 = load ptr, ptr %20, align 8, !tbaa !21
  %22 = getelementptr inbounds nuw %struct._lv_obj_spec_attr_t, ptr %21, i32 0, i32 4
  %23 = load i32, ptr %22, align 8, !tbaa !57
  call void @lv_area_increase(ptr noundef %13, i32 noundef %18, i32 noundef %23)
  br label %24

24:                                               ; preds = %12, %2
  ret void
}

; Function Attrs: nounwind uwtable
define zeroext i1 @lv_obj_hit_test(ptr noundef %0, ptr noundef %1) #0 {
  %3 = alloca i1, align 1
  %4 = alloca ptr, align 8
  %5 = alloca ptr, align 8
  %6 = alloca %struct.lv_area_t, align 4
  %7 = alloca i8, align 1
  %8 = alloca i32, align 4
  %9 = alloca %struct._lv_hit_test_info_t, align 8
  store ptr %0, ptr %4, align 8, !tbaa !3
  store ptr %1, ptr %5, align 8, !tbaa !3
  %10 = load ptr, ptr %4, align 8, !tbaa !3
  %11 = call zeroext i1 @lv_obj_has_flag(ptr noundef %10, i32 noundef 2)
  br i1 %11, label %13, label %12

12:                                               ; preds = %2
  store i1 false, ptr %3, align 1
  br label %39

13:                                               ; preds = %2
  call void @llvm.lifetime.start.p0(i64 16, ptr %6) #5
  %14 = load ptr, ptr %4, align 8, !tbaa !3
  call void @lv_obj_get_click_area(ptr noundef %14, ptr noundef %6)
  call void @llvm.lifetime.start.p0(i64 1, ptr %7) #5
  %15 = load ptr, ptr %5, align 8, !tbaa !3
  %16 = call zeroext i1 @lv_area_is_point_on(ptr noundef %6, ptr noundef %15, i32 noundef 0)
  %17 = zext i1 %16 to i8
  store i8 %17, ptr %7, align 1, !tbaa !10
  %18 = load i8, ptr %7, align 1, !tbaa !10, !range !12, !noundef !13
  %19 = trunc i8 %18 to i1
  %20 = zext i1 %19 to i32
  %21 = icmp eq i32 %20, 0
  br i1 %21, label %22, label %23

22:                                               ; preds = %13
  store i1 false, ptr %3, align 1
  store i32 1, ptr %8, align 4
  br label %38

23:                                               ; preds = %13
  %24 = load ptr, ptr %4, align 8, !tbaa !3
  %25 = call zeroext i1 @lv_obj_has_flag(ptr noundef %24, i32 noundef 65536)
  br i1 %25, label %26, label %35

26:                                               ; preds = %23
  call void @llvm.lifetime.start.p0(i64 16, ptr %9) #5
  %27 = load ptr, ptr %5, align 8, !tbaa !3
  %28 = getelementptr inbounds nuw %struct._lv_hit_test_info_t, ptr %9, i32 0, i32 0
  store ptr %27, ptr %28, align 8, !tbaa !58
  %29 = getelementptr inbounds nuw %struct._lv_hit_test_info_t, ptr %9, i32 0, i32 1
  store i8 1, ptr %29, align 8, !tbaa !60
  %30 = load ptr, ptr %4, align 8, !tbaa !3
  %31 = call i32 @lv_obj_send_event(ptr noundef %30, i32 noundef 22, ptr noundef %9)
  %32 = getelementptr inbounds nuw %struct._lv_hit_test_info_t, ptr %9, i32 0, i32 1
  %33 = load i8, ptr %32, align 8, !tbaa !60, !range !12, !noundef !13
  %34 = trunc i8 %33 to i1
  store i1 %34, ptr %3, align 1
  store i32 1, ptr %8, align 4
  call void @llvm.lifetime.end.p0(i64 16, ptr %9) #5
  br label %38

35:                                               ; preds = %23
  %36 = load i8, ptr %7, align 1, !tbaa !10, !range !12, !noundef !13
  %37 = trunc i8 %36 to i1
  store i1 %37, ptr %3, align 1
  store i32 1, ptr %8, align 4
  br label %38

38:                                               ; preds = %35, %26, %22
  call void @llvm.lifetime.end.p0(i64 1, ptr %7) #5
  call void @llvm.lifetime.end.p0(i64 16, ptr %6) #5
  br label %39

39:                                               ; preds = %38, %12
  %40 = load i1, ptr %3, align 1
  ret i1 %40
}