; Function Attrs: nounwind uwtable
define zeroext i1 @lv_obj_hit_test(ptr noundef %0, ptr noundef %1) local_unnamed_addr #0 {
  %3 = alloca %struct.lv_area_t, align 4
  %4 = alloca %struct._lv_hit_test_info_t, align 8
  %5 = tail call zeroext i1 @lv_obj_has_flag(ptr noundef %0, i32 noundef 2) #8
  br i1 %5, label %6, label %32

6:                                                ; preds = %2
  call void @llvm.lifetime.start.p0(i64 16, ptr nonnull %3) #8
  %7 = getelementptr inbounds nuw i8, ptr %0, i64 40
  %8 = load i32, ptr %7, align 4, !tbaa !31
  store i32 %8, ptr %3, align 4, !tbaa !31
  %9 = getelementptr inbounds nuw i8, ptr %0, i64 44
  %10 = load i32, ptr %9, align 4, !tbaa !32
  %11 = getelementptr inbounds nuw i8, ptr %3, i64 4
  store i32 %10, ptr %11, align 4, !tbaa !32
  %12 = getelementptr inbounds nuw i8, ptr %0, i64 48
  %13 = load i32, ptr %12, align 4, !tbaa !33
  %14 = getelementptr inbounds nuw i8, ptr %3, i64 8
  store i32 %13, ptr %14, align 4, !tbaa !33
  %15 = getelementptr inbounds nuw i8, ptr %0, i64 52
  %16 = load i32, ptr %15, align 4, !tbaa !34
  %17 = getelementptr inbounds nuw i8, ptr %3, i64 12
  store i32 %16, ptr %17, align 4, !tbaa !34
  %18 = getelementptr inbounds nuw i8, ptr %0, i64 16
  %19 = load ptr, ptr %18, align 8, !tbaa !6
  %.not.i = icmp eq ptr %19, null
  br i1 %.not.i, label %lv_obj_get_click_area.exit, label %20

20:                                               ; preds = %6
  %21 = getelementptr inbounds nuw i8, ptr %19, i64 56
  %22 = load i32, ptr %21, align 8, !tbaa !54
  call void @lv_area_increase(ptr noundef nonnull %3, i32 noundef %22, i32 noundef %22) #8
  br label %lv_obj_get_click_area.exit

lv_obj_get_click_area.exit:                       ; preds = %6, %20
  %23 = call zeroext i1 @lv_area_is_point_on(ptr noundef nonnull %3, ptr noundef %1, i32 noundef 0) #8
  br i1 %23, label %24, label %31

24:                                               ; preds = %lv_obj_get_click_area.exit
  %25 = call zeroext i1 @lv_obj_has_flag(ptr noundef nonnull %0, i32 noundef 65536) #8
  br i1 %25, label %26, label %31

26:                                               ; preds = %24
  call void @llvm.lifetime.start.p0(i64 16, ptr nonnull %4) #8
  store ptr %1, ptr %4, align 8, !tbaa !55
  %27 = getelementptr inbounds nuw i8, ptr %4, i64 8
  store i8 1, ptr %27, align 8, !tbaa !57
  %28 = call i32 @lv_obj_send_event(ptr noundef nonnull %0, i32 noundef 22, ptr noundef nonnull %4) #8
  %29 = load i8, ptr %27, align 8, !tbaa !57, !range !46, !noundef !47
  %30 = trunc nuw i8 %29 to i1
  call void @llvm.lifetime.end.p0(i64 16, ptr nonnull %4) #8
  br label %31

31:                                               ; preds = %24, %lv_obj_get_click_area.exit, %26
  %.1 = phi i1 [ %30, %26 ], [ false, %lv_obj_get_click_area.exit ], [ true, %24 ]
  call void @llvm.lifetime.end.p0(i64 16, ptr nonnull %3) #8
  br label %32

32:                                               ; preds = %2, %31
  %.0 = phi i1 [ %.1, %31 ], [ false, %2 ]
  ret i1 %.0
}